
user/_sh:     file format elf32-i386


Disassembly of section .text:

00000000 <getcmd>:
   0:	55                   	push   %ebp
   1:	89 e5                	mov    %esp,%ebp
   3:	56                   	push   %esi
   4:	53                   	push   %ebx
   5:	8b 5d 08             	mov    0x8(%ebp),%ebx
   8:	8b 75 0c             	mov    0xc(%ebp),%esi
   b:	83 ec 08             	sub    $0x8,%esp
   e:	68 d4 0f 00 00       	push   $0xfd4
  13:	6a 02                	push   $0x2
  15:	e8 a2 0c 00 00       	call   cbc <printf>
  1a:	83 c4 0c             	add    $0xc,%esp
  1d:	56                   	push   %esi
  1e:	6a 00                	push   $0x0
  20:	53                   	push   %ebx
  21:	e8 1f 0a 00 00       	call   a45 <memset>
  26:	83 c4 08             	add    $0x8,%esp
  29:	56                   	push   %esi
  2a:	53                   	push   %ebx
  2b:	e8 62 0a 00 00       	call   a92 <gets>
  30:	83 c4 10             	add    $0x10,%esp
  33:	80 3b 00             	cmpb   $0x0,(%ebx)
  36:	0f 94 c0             	sete   %al
  39:	0f b6 c0             	movzbl %al,%eax
  3c:	f7 d8                	neg    %eax
  3e:	8d 65 f8             	lea    -0x8(%ebp),%esp
  41:	5b                   	pop    %ebx
  42:	5e                   	pop    %esi
  43:	5d                   	pop    %ebp
  44:	c3                   	ret    

00000045 <panic>:
  45:	55                   	push   %ebp
  46:	89 e5                	mov    %esp,%ebp
  48:	83 ec 0c             	sub    $0xc,%esp
  4b:	ff 75 08             	pushl  0x8(%ebp)
  4e:	68 71 10 00 00       	push   $0x1071
  53:	6a 02                	push   $0x2
  55:	e8 62 0c 00 00       	call   cbc <printf>
  5a:	e8 33 0b 00 00       	call   b92 <exit>

0000005f <fork1>:
  5f:	55                   	push   %ebp
  60:	89 e5                	mov    %esp,%ebp
  62:	83 ec 08             	sub    $0x8,%esp
  65:	e8 20 0b 00 00       	call   b8a <fork>
  6a:	83 f8 ff             	cmp    $0xffffffff,%eax
  6d:	74 02                	je     71 <fork1+0x12>
  6f:	c9                   	leave  
  70:	c3                   	ret    
  71:	83 ec 0c             	sub    $0xc,%esp
  74:	68 d7 0f 00 00       	push   $0xfd7
  79:	e8 c7 ff ff ff       	call   45 <panic>

0000007e <runcmd>:
  7e:	55                   	push   %ebp
  7f:	89 e5                	mov    %esp,%ebp
  81:	53                   	push   %ebx
  82:	83 ec 14             	sub    $0x14,%esp
  85:	8b 5d 08             	mov    0x8(%ebp),%ebx
  88:	85 db                	test   %ebx,%ebx
  8a:	74 0e                	je     9a <runcmd+0x1c>
  8c:	83 3b 05             	cmpl   $0x5,(%ebx)
  8f:	77 0e                	ja     9f <runcmd+0x21>
  91:	8b 03                	mov    (%ebx),%eax
  93:	ff 24 85 8c 10 00 00 	jmp    *0x108c(,%eax,4)
  9a:	e8 f3 0a 00 00       	call   b92 <exit>
  9f:	83 ec 0c             	sub    $0xc,%esp
  a2:	68 dc 0f 00 00       	push   $0xfdc
  a7:	e8 99 ff ff ff       	call   45 <panic>
  ac:	8b 43 04             	mov    0x4(%ebx),%eax
  af:	85 c0                	test   %eax,%eax
  b1:	74 27                	je     da <runcmd+0x5c>
  b3:	83 ec 08             	sub    $0x8,%esp
  b6:	8d 53 04             	lea    0x4(%ebx),%edx
  b9:	52                   	push   %edx
  ba:	50                   	push   %eax
  bb:	e8 0a 0b 00 00       	call   bca <exec>
  c0:	83 c4 0c             	add    $0xc,%esp
  c3:	ff 73 04             	pushl  0x4(%ebx)
  c6:	68 e3 0f 00 00       	push   $0xfe3
  cb:	6a 02                	push   $0x2
  cd:	e8 ea 0b 00 00       	call   cbc <printf>
  d2:	83 c4 10             	add    $0x10,%esp
  d5:	e9 3a 01 00 00       	jmp    214 <runcmd+0x196>
  da:	e8 b3 0a 00 00       	call   b92 <exit>
  df:	83 ec 0c             	sub    $0xc,%esp
  e2:	ff 73 14             	pushl  0x14(%ebx)
  e5:	e8 d0 0a 00 00       	call   bba <close>
  ea:	83 c4 08             	add    $0x8,%esp
  ed:	ff 73 10             	pushl  0x10(%ebx)
  f0:	ff 73 08             	pushl  0x8(%ebx)
  f3:	e8 da 0a 00 00       	call   bd2 <open>
  f8:	83 c4 10             	add    $0x10,%esp
  fb:	85 c0                	test   %eax,%eax
  fd:	79 17                	jns    116 <runcmd+0x98>
  ff:	83 ec 04             	sub    $0x4,%esp
 102:	ff 73 08             	pushl  0x8(%ebx)
 105:	68 f3 0f 00 00       	push   $0xff3
 10a:	6a 02                	push   $0x2
 10c:	e8 ab 0b 00 00       	call   cbc <printf>
 111:	e8 7c 0a 00 00       	call   b92 <exit>
 116:	83 ec 0c             	sub    $0xc,%esp
 119:	ff 73 04             	pushl  0x4(%ebx)
 11c:	e8 5d ff ff ff       	call   7e <runcmd>
 121:	e8 39 ff ff ff       	call   5f <fork1>
 126:	85 c0                	test   %eax,%eax
 128:	74 10                	je     13a <runcmd+0xbc>
 12a:	e8 6b 0a 00 00       	call   b9a <wait>
 12f:	83 ec 0c             	sub    $0xc,%esp
 132:	ff 73 08             	pushl  0x8(%ebx)
 135:	e8 44 ff ff ff       	call   7e <runcmd>
 13a:	83 ec 0c             	sub    $0xc,%esp
 13d:	ff 73 04             	pushl  0x4(%ebx)
 140:	e8 39 ff ff ff       	call   7e <runcmd>
 145:	83 ec 0c             	sub    $0xc,%esp
 148:	8d 45 f0             	lea    -0x10(%ebp),%eax
 14b:	50                   	push   %eax
 14c:	e8 51 0a 00 00       	call   ba2 <pipe>
 151:	83 c4 10             	add    $0x10,%esp
 154:	85 c0                	test   %eax,%eax
 156:	78 3a                	js     192 <runcmd+0x114>
 158:	e8 02 ff ff ff       	call   5f <fork1>
 15d:	85 c0                	test   %eax,%eax
 15f:	74 3e                	je     19f <runcmd+0x121>
 161:	e8 f9 fe ff ff       	call   5f <fork1>
 166:	85 c0                	test   %eax,%eax
 168:	74 6b                	je     1d5 <runcmd+0x157>
 16a:	83 ec 0c             	sub    $0xc,%esp
 16d:	ff 75 f0             	pushl  -0x10(%ebp)
 170:	e8 45 0a 00 00       	call   bba <close>
 175:	83 c4 04             	add    $0x4,%esp
 178:	ff 75 f4             	pushl  -0xc(%ebp)
 17b:	e8 3a 0a 00 00       	call   bba <close>
 180:	e8 15 0a 00 00       	call   b9a <wait>
 185:	e8 10 0a 00 00       	call   b9a <wait>
 18a:	83 c4 10             	add    $0x10,%esp
 18d:	e9 82 00 00 00       	jmp    214 <runcmd+0x196>
 192:	83 ec 0c             	sub    $0xc,%esp
 195:	68 03 10 00 00       	push   $0x1003
 19a:	e8 a6 fe ff ff       	call   45 <panic>
 19f:	83 ec 0c             	sub    $0xc,%esp
 1a2:	6a 01                	push   $0x1
 1a4:	e8 11 0a 00 00       	call   bba <close>
 1a9:	83 c4 04             	add    $0x4,%esp
 1ac:	ff 75 f4             	pushl  -0xc(%ebp)
 1af:	e8 56 0a 00 00       	call   c0a <dup>
 1b4:	83 c4 04             	add    $0x4,%esp
 1b7:	ff 75 f0             	pushl  -0x10(%ebp)
 1ba:	e8 fb 09 00 00       	call   bba <close>
 1bf:	83 c4 04             	add    $0x4,%esp
 1c2:	ff 75 f4             	pushl  -0xc(%ebp)
 1c5:	e8 f0 09 00 00       	call   bba <close>
 1ca:	83 c4 04             	add    $0x4,%esp
 1cd:	ff 73 04             	pushl  0x4(%ebx)
 1d0:	e8 a9 fe ff ff       	call   7e <runcmd>
 1d5:	83 ec 0c             	sub    $0xc,%esp
 1d8:	6a 00                	push   $0x0
 1da:	e8 db 09 00 00       	call   bba <close>
 1df:	83 c4 04             	add    $0x4,%esp
 1e2:	ff 75 f0             	pushl  -0x10(%ebp)
 1e5:	e8 20 0a 00 00       	call   c0a <dup>
 1ea:	83 c4 04             	add    $0x4,%esp
 1ed:	ff 75 f0             	pushl  -0x10(%ebp)
 1f0:	e8 c5 09 00 00       	call   bba <close>
 1f5:	83 c4 04             	add    $0x4,%esp
 1f8:	ff 75 f4             	pushl  -0xc(%ebp)
 1fb:	e8 ba 09 00 00       	call   bba <close>
 200:	83 c4 04             	add    $0x4,%esp
 203:	ff 73 08             	pushl  0x8(%ebx)
 206:	e8 73 fe ff ff       	call   7e <runcmd>
 20b:	e8 4f fe ff ff       	call   5f <fork1>
 210:	85 c0                	test   %eax,%eax
 212:	74 05                	je     219 <runcmd+0x19b>
 214:	e8 79 09 00 00       	call   b92 <exit>
 219:	83 ec 0c             	sub    $0xc,%esp
 21c:	ff 73 04             	pushl  0x4(%ebx)
 21f:	e8 5a fe ff ff       	call   7e <runcmd>

00000224 <execcmd>:
 224:	55                   	push   %ebp
 225:	89 e5                	mov    %esp,%ebp
 227:	53                   	push   %ebx
 228:	83 ec 10             	sub    $0x10,%esp
 22b:	6a 54                	push   $0x54
 22d:	e8 c8 0c 00 00       	call   efa <malloc>
 232:	89 c3                	mov    %eax,%ebx
 234:	83 c4 0c             	add    $0xc,%esp
 237:	6a 54                	push   $0x54
 239:	6a 00                	push   $0x0
 23b:	50                   	push   %eax
 23c:	e8 04 08 00 00       	call   a45 <memset>
 241:	c7 03 01 00 00 00    	movl   $0x1,(%ebx)
 247:	89 d8                	mov    %ebx,%eax
 249:	8b 5d fc             	mov    -0x4(%ebp),%ebx
 24c:	c9                   	leave  
 24d:	c3                   	ret    

0000024e <redircmd>:
 24e:	55                   	push   %ebp
 24f:	89 e5                	mov    %esp,%ebp
 251:	53                   	push   %ebx
 252:	83 ec 10             	sub    $0x10,%esp
 255:	6a 18                	push   $0x18
 257:	e8 9e 0c 00 00       	call   efa <malloc>
 25c:	89 c3                	mov    %eax,%ebx
 25e:	83 c4 0c             	add    $0xc,%esp
 261:	6a 18                	push   $0x18
 263:	6a 00                	push   $0x0
 265:	50                   	push   %eax
 266:	e8 da 07 00 00       	call   a45 <memset>
 26b:	c7 03 02 00 00 00    	movl   $0x2,(%ebx)
 271:	8b 45 08             	mov    0x8(%ebp),%eax
 274:	89 43 04             	mov    %eax,0x4(%ebx)
 277:	8b 45 0c             	mov    0xc(%ebp),%eax
 27a:	89 43 08             	mov    %eax,0x8(%ebx)
 27d:	8b 45 10             	mov    0x10(%ebp),%eax
 280:	89 43 0c             	mov    %eax,0xc(%ebx)
 283:	8b 45 14             	mov    0x14(%ebp),%eax
 286:	89 43 10             	mov    %eax,0x10(%ebx)
 289:	8b 45 18             	mov    0x18(%ebp),%eax
 28c:	89 43 14             	mov    %eax,0x14(%ebx)
 28f:	89 d8                	mov    %ebx,%eax
 291:	8b 5d fc             	mov    -0x4(%ebp),%ebx
 294:	c9                   	leave  
 295:	c3                   	ret    

00000296 <pipecmd>:
 296:	55                   	push   %ebp
 297:	89 e5                	mov    %esp,%ebp
 299:	53                   	push   %ebx
 29a:	83 ec 10             	sub    $0x10,%esp
 29d:	6a 0c                	push   $0xc
 29f:	e8 56 0c 00 00       	call   efa <malloc>
 2a4:	89 c3                	mov    %eax,%ebx
 2a6:	83 c4 0c             	add    $0xc,%esp
 2a9:	6a 0c                	push   $0xc
 2ab:	6a 00                	push   $0x0
 2ad:	50                   	push   %eax
 2ae:	e8 92 07 00 00       	call   a45 <memset>
 2b3:	c7 03 03 00 00 00    	movl   $0x3,(%ebx)
 2b9:	8b 45 08             	mov    0x8(%ebp),%eax
 2bc:	89 43 04             	mov    %eax,0x4(%ebx)
 2bf:	8b 45 0c             	mov    0xc(%ebp),%eax
 2c2:	89 43 08             	mov    %eax,0x8(%ebx)
 2c5:	89 d8                	mov    %ebx,%eax
 2c7:	8b 5d fc             	mov    -0x4(%ebp),%ebx
 2ca:	c9                   	leave  
 2cb:	c3                   	ret    

000002cc <listcmd>:
 2cc:	55                   	push   %ebp
 2cd:	89 e5                	mov    %esp,%ebp
 2cf:	53                   	push   %ebx
 2d0:	83 ec 10             	sub    $0x10,%esp
 2d3:	6a 0c                	push   $0xc
 2d5:	e8 20 0c 00 00       	call   efa <malloc>
 2da:	89 c3                	mov    %eax,%ebx
 2dc:	83 c4 0c             	add    $0xc,%esp
 2df:	6a 0c                	push   $0xc
 2e1:	6a 00                	push   $0x0
 2e3:	50                   	push   %eax
 2e4:	e8 5c 07 00 00       	call   a45 <memset>
 2e9:	c7 03 04 00 00 00    	movl   $0x4,(%ebx)
 2ef:	8b 45 08             	mov    0x8(%ebp),%eax
 2f2:	89 43 04             	mov    %eax,0x4(%ebx)
 2f5:	8b 45 0c             	mov    0xc(%ebp),%eax
 2f8:	89 43 08             	mov    %eax,0x8(%ebx)
 2fb:	89 d8                	mov    %ebx,%eax
 2fd:	8b 5d fc             	mov    -0x4(%ebp),%ebx
 300:	c9                   	leave  
 301:	c3                   	ret    

00000302 <backcmd>:
 302:	55                   	push   %ebp
 303:	89 e5                	mov    %esp,%ebp
 305:	53                   	push   %ebx
 306:	83 ec 10             	sub    $0x10,%esp
 309:	6a 08                	push   $0x8
 30b:	e8 ea 0b 00 00       	call   efa <malloc>
 310:	89 c3                	mov    %eax,%ebx
 312:	83 c4 0c             	add    $0xc,%esp
 315:	6a 08                	push   $0x8
 317:	6a 00                	push   $0x0
 319:	50                   	push   %eax
 31a:	e8 26 07 00 00       	call   a45 <memset>
 31f:	c7 03 05 00 00 00    	movl   $0x5,(%ebx)
 325:	8b 45 08             	mov    0x8(%ebp),%eax
 328:	89 43 04             	mov    %eax,0x4(%ebx)
 32b:	89 d8                	mov    %ebx,%eax
 32d:	8b 5d fc             	mov    -0x4(%ebp),%ebx
 330:	c9                   	leave  
 331:	c3                   	ret    

00000332 <gettoken>:
 332:	55                   	push   %ebp
 333:	89 e5                	mov    %esp,%ebp
 335:	57                   	push   %edi
 336:	56                   	push   %esi
 337:	53                   	push   %ebx
 338:	83 ec 0c             	sub    $0xc,%esp
 33b:	8b 75 0c             	mov    0xc(%ebp),%esi
 33e:	8b 7d 10             	mov    0x10(%ebp),%edi
 341:	8b 45 08             	mov    0x8(%ebp),%eax
 344:	8b 18                	mov    (%eax),%ebx
 346:	39 f3                	cmp    %esi,%ebx
 348:	73 1f                	jae    369 <gettoken+0x37>
 34a:	83 ec 08             	sub    $0x8,%esp
 34d:	0f be 03             	movsbl (%ebx),%eax
 350:	50                   	push   %eax
 351:	68 0c 16 00 00       	push   $0x160c
 356:	e8 01 07 00 00       	call   a5c <strchr>
 35b:	83 c4 10             	add    $0x10,%esp
 35e:	85 c0                	test   %eax,%eax
 360:	74 07                	je     369 <gettoken+0x37>
 362:	83 c3 01             	add    $0x1,%ebx
 365:	39 de                	cmp    %ebx,%esi
 367:	75 e1                	jne    34a <gettoken+0x18>
 369:	85 ff                	test   %edi,%edi
 36b:	74 02                	je     36f <gettoken+0x3d>
 36d:	89 1f                	mov    %ebx,(%edi)
 36f:	0f b6 03             	movzbl (%ebx),%eax
 372:	0f be f8             	movsbl %al,%edi
 375:	3c 29                	cmp    $0x29,%al
 377:	0f 8f 99 00 00 00    	jg     416 <gettoken+0xe4>
 37d:	3c 28                	cmp    $0x28,%al
 37f:	0f 8d a0 00 00 00    	jge    425 <gettoken+0xf3>
 385:	84 c0                	test   %al,%al
 387:	75 3d                	jne    3c6 <gettoken+0x94>
 389:	83 7d 14 00          	cmpl   $0x0,0x14(%ebp)
 38d:	74 05                	je     394 <gettoken+0x62>
 38f:	8b 45 14             	mov    0x14(%ebp),%eax
 392:	89 18                	mov    %ebx,(%eax)
 394:	39 f3                	cmp    %esi,%ebx
 396:	73 1f                	jae    3b7 <gettoken+0x85>
 398:	83 ec 08             	sub    $0x8,%esp
 39b:	0f be 03             	movsbl (%ebx),%eax
 39e:	50                   	push   %eax
 39f:	68 0c 16 00 00       	push   $0x160c
 3a4:	e8 b3 06 00 00       	call   a5c <strchr>
 3a9:	83 c4 10             	add    $0x10,%esp
 3ac:	85 c0                	test   %eax,%eax
 3ae:	74 07                	je     3b7 <gettoken+0x85>
 3b0:	83 c3 01             	add    $0x1,%ebx
 3b3:	39 de                	cmp    %ebx,%esi
 3b5:	75 e1                	jne    398 <gettoken+0x66>
 3b7:	8b 45 08             	mov    0x8(%ebp),%eax
 3ba:	89 18                	mov    %ebx,(%eax)
 3bc:	89 f8                	mov    %edi,%eax
 3be:	8d 65 f4             	lea    -0xc(%ebp),%esp
 3c1:	5b                   	pop    %ebx
 3c2:	5e                   	pop    %esi
 3c3:	5f                   	pop    %edi
 3c4:	5d                   	pop    %ebp
 3c5:	c3                   	ret    
 3c6:	3c 26                	cmp    $0x26,%al
 3c8:	74 5b                	je     425 <gettoken+0xf3>
 3ca:	39 de                	cmp    %ebx,%esi
 3cc:	76 37                	jbe    405 <gettoken+0xd3>
 3ce:	83 ec 08             	sub    $0x8,%esp
 3d1:	0f be 03             	movsbl (%ebx),%eax
 3d4:	50                   	push   %eax
 3d5:	68 0c 16 00 00       	push   $0x160c
 3da:	e8 7d 06 00 00       	call   a5c <strchr>
 3df:	83 c4 10             	add    $0x10,%esp
 3e2:	85 c0                	test   %eax,%eax
 3e4:	75 79                	jne    45f <gettoken+0x12d>
 3e6:	83 ec 08             	sub    $0x8,%esp
 3e9:	0f be 03             	movsbl (%ebx),%eax
 3ec:	50                   	push   %eax
 3ed:	68 04 16 00 00       	push   $0x1604
 3f2:	e8 65 06 00 00       	call   a5c <strchr>
 3f7:	83 c4 10             	add    $0x10,%esp
 3fa:	85 c0                	test   %eax,%eax
 3fc:	75 57                	jne    455 <gettoken+0x123>
 3fe:	83 c3 01             	add    $0x1,%ebx
 401:	39 de                	cmp    %ebx,%esi
 403:	75 c9                	jne    3ce <gettoken+0x9c>
 405:	bf 61 00 00 00       	mov    $0x61,%edi
 40a:	83 7d 14 00          	cmpl   $0x0,0x14(%ebp)
 40e:	0f 85 7b ff ff ff    	jne    38f <gettoken+0x5d>
 414:	eb a1                	jmp    3b7 <gettoken+0x85>
 416:	3c 3e                	cmp    $0x3e,%al
 418:	74 19                	je     433 <gettoken+0x101>
 41a:	3c 3e                	cmp    $0x3e,%al
 41c:	7f 0f                	jg     42d <gettoken+0xfb>
 41e:	83 e8 3b             	sub    $0x3b,%eax
 421:	3c 01                	cmp    $0x1,%al
 423:	77 a5                	ja     3ca <gettoken+0x98>
 425:	83 c3 01             	add    $0x1,%ebx
 428:	e9 5c ff ff ff       	jmp    389 <gettoken+0x57>
 42d:	3c 7c                	cmp    $0x7c,%al
 42f:	74 f4                	je     425 <gettoken+0xf3>
 431:	eb 97                	jmp    3ca <gettoken+0x98>
 433:	8d 43 01             	lea    0x1(%ebx),%eax
 436:	80 7b 01 3e          	cmpb   $0x3e,0x1(%ebx)
 43a:	74 0c                	je     448 <gettoken+0x116>
 43c:	89 c3                	mov    %eax,%ebx
 43e:	bf 3e 00 00 00       	mov    $0x3e,%edi
 443:	e9 41 ff ff ff       	jmp    389 <gettoken+0x57>
 448:	83 c3 02             	add    $0x2,%ebx
 44b:	bf 2b 00 00 00       	mov    $0x2b,%edi
 450:	e9 34 ff ff ff       	jmp    389 <gettoken+0x57>
 455:	bf 61 00 00 00       	mov    $0x61,%edi
 45a:	e9 2a ff ff ff       	jmp    389 <gettoken+0x57>
 45f:	bf 61 00 00 00       	mov    $0x61,%edi
 464:	e9 20 ff ff ff       	jmp    389 <gettoken+0x57>

00000469 <peek>:
 469:	55                   	push   %ebp
 46a:	89 e5                	mov    %esp,%ebp
 46c:	57                   	push   %edi
 46d:	56                   	push   %esi
 46e:	53                   	push   %ebx
 46f:	83 ec 0c             	sub    $0xc,%esp
 472:	8b 7d 08             	mov    0x8(%ebp),%edi
 475:	8b 75 0c             	mov    0xc(%ebp),%esi
 478:	8b 1f                	mov    (%edi),%ebx
 47a:	39 f3                	cmp    %esi,%ebx
 47c:	73 1f                	jae    49d <peek+0x34>
 47e:	83 ec 08             	sub    $0x8,%esp
 481:	0f be 03             	movsbl (%ebx),%eax
 484:	50                   	push   %eax
 485:	68 0c 16 00 00       	push   $0x160c
 48a:	e8 cd 05 00 00       	call   a5c <strchr>
 48f:	83 c4 10             	add    $0x10,%esp
 492:	85 c0                	test   %eax,%eax
 494:	74 07                	je     49d <peek+0x34>
 496:	83 c3 01             	add    $0x1,%ebx
 499:	39 de                	cmp    %ebx,%esi
 49b:	75 e1                	jne    47e <peek+0x15>
 49d:	89 1f                	mov    %ebx,(%edi)
 49f:	0f b6 13             	movzbl (%ebx),%edx
 4a2:	b8 00 00 00 00       	mov    $0x0,%eax
 4a7:	84 d2                	test   %dl,%dl
 4a9:	75 08                	jne    4b3 <peek+0x4a>
 4ab:	8d 65 f4             	lea    -0xc(%ebp),%esp
 4ae:	5b                   	pop    %ebx
 4af:	5e                   	pop    %esi
 4b0:	5f                   	pop    %edi
 4b1:	5d                   	pop    %ebp
 4b2:	c3                   	ret    
 4b3:	83 ec 08             	sub    $0x8,%esp
 4b6:	0f be d2             	movsbl %dl,%edx
 4b9:	52                   	push   %edx
 4ba:	ff 75 10             	pushl  0x10(%ebp)
 4bd:	e8 9a 05 00 00       	call   a5c <strchr>
 4c2:	83 c4 10             	add    $0x10,%esp
 4c5:	85 c0                	test   %eax,%eax
 4c7:	0f 95 c0             	setne  %al
 4ca:	0f b6 c0             	movzbl %al,%eax
 4cd:	eb dc                	jmp    4ab <peek+0x42>

000004cf <parseredirs>:
 4cf:	55                   	push   %ebp
 4d0:	89 e5                	mov    %esp,%ebp
 4d2:	57                   	push   %edi
 4d3:	56                   	push   %esi
 4d4:	53                   	push   %ebx
 4d5:	83 ec 1c             	sub    $0x1c,%esp
 4d8:	8b 75 0c             	mov    0xc(%ebp),%esi
 4db:	8b 7d 10             	mov    0x10(%ebp),%edi
 4de:	eb 28                	jmp    508 <parseredirs+0x39>
 4e0:	83 ec 0c             	sub    $0xc,%esp
 4e3:	68 08 10 00 00       	push   $0x1008
 4e8:	e8 58 fb ff ff       	call   45 <panic>
 4ed:	83 ec 0c             	sub    $0xc,%esp
 4f0:	6a 00                	push   $0x0
 4f2:	6a 00                	push   $0x0
 4f4:	ff 75 e0             	pushl  -0x20(%ebp)
 4f7:	ff 75 e4             	pushl  -0x1c(%ebp)
 4fa:	ff 75 08             	pushl  0x8(%ebp)
 4fd:	e8 4c fd ff ff       	call   24e <redircmd>
 502:	89 45 08             	mov    %eax,0x8(%ebp)
 505:	83 c4 20             	add    $0x20,%esp
 508:	83 ec 04             	sub    $0x4,%esp
 50b:	68 25 10 00 00       	push   $0x1025
 510:	57                   	push   %edi
 511:	56                   	push   %esi
 512:	e8 52 ff ff ff       	call   469 <peek>
 517:	83 c4 10             	add    $0x10,%esp
 51a:	85 c0                	test   %eax,%eax
 51c:	74 76                	je     594 <parseredirs+0xc5>
 51e:	6a 00                	push   $0x0
 520:	6a 00                	push   $0x0
 522:	57                   	push   %edi
 523:	56                   	push   %esi
 524:	e8 09 fe ff ff       	call   332 <gettoken>
 529:	89 c3                	mov    %eax,%ebx
 52b:	8d 45 e0             	lea    -0x20(%ebp),%eax
 52e:	50                   	push   %eax
 52f:	8d 45 e4             	lea    -0x1c(%ebp),%eax
 532:	50                   	push   %eax
 533:	57                   	push   %edi
 534:	56                   	push   %esi
 535:	e8 f8 fd ff ff       	call   332 <gettoken>
 53a:	83 c4 20             	add    $0x20,%esp
 53d:	83 f8 61             	cmp    $0x61,%eax
 540:	75 9e                	jne    4e0 <parseredirs+0x11>
 542:	83 fb 3c             	cmp    $0x3c,%ebx
 545:	74 a6                	je     4ed <parseredirs+0x1e>
 547:	83 fb 3e             	cmp    $0x3e,%ebx
 54a:	74 25                	je     571 <parseredirs+0xa2>
 54c:	83 fb 2b             	cmp    $0x2b,%ebx
 54f:	75 b7                	jne    508 <parseredirs+0x39>
 551:	83 ec 0c             	sub    $0xc,%esp
 554:	6a 01                	push   $0x1
 556:	68 01 02 00 00       	push   $0x201
 55b:	ff 75 e0             	pushl  -0x20(%ebp)
 55e:	ff 75 e4             	pushl  -0x1c(%ebp)
 561:	ff 75 08             	pushl  0x8(%ebp)
 564:	e8 e5 fc ff ff       	call   24e <redircmd>
 569:	89 45 08             	mov    %eax,0x8(%ebp)
 56c:	83 c4 20             	add    $0x20,%esp
 56f:	eb 97                	jmp    508 <parseredirs+0x39>
 571:	83 ec 0c             	sub    $0xc,%esp
 574:	6a 01                	push   $0x1
 576:	68 01 02 00 00       	push   $0x201
 57b:	ff 75 e0             	pushl  -0x20(%ebp)
 57e:	ff 75 e4             	pushl  -0x1c(%ebp)
 581:	ff 75 08             	pushl  0x8(%ebp)
 584:	e8 c5 fc ff ff       	call   24e <redircmd>
 589:	89 45 08             	mov    %eax,0x8(%ebp)
 58c:	83 c4 20             	add    $0x20,%esp
 58f:	e9 74 ff ff ff       	jmp    508 <parseredirs+0x39>
 594:	8b 45 08             	mov    0x8(%ebp),%eax
 597:	8d 65 f4             	lea    -0xc(%ebp),%esp
 59a:	5b                   	pop    %ebx
 59b:	5e                   	pop    %esi
 59c:	5f                   	pop    %edi
 59d:	5d                   	pop    %ebp
 59e:	c3                   	ret    

0000059f <parseexec>:
 59f:	55                   	push   %ebp
 5a0:	89 e5                	mov    %esp,%ebp
 5a2:	57                   	push   %edi
 5a3:	56                   	push   %esi
 5a4:	53                   	push   %ebx
 5a5:	83 ec 30             	sub    $0x30,%esp
 5a8:	8b 75 08             	mov    0x8(%ebp),%esi
 5ab:	8b 7d 0c             	mov    0xc(%ebp),%edi
 5ae:	68 28 10 00 00       	push   $0x1028
 5b3:	57                   	push   %edi
 5b4:	56                   	push   %esi
 5b5:	e8 af fe ff ff       	call   469 <peek>
 5ba:	83 c4 10             	add    $0x10,%esp
 5bd:	85 c0                	test   %eax,%eax
 5bf:	75 7a                	jne    63b <parseexec+0x9c>
 5c1:	89 c3                	mov    %eax,%ebx
 5c3:	e8 5c fc ff ff       	call   224 <execcmd>
 5c8:	89 45 d0             	mov    %eax,-0x30(%ebp)
 5cb:	83 ec 04             	sub    $0x4,%esp
 5ce:	57                   	push   %edi
 5cf:	56                   	push   %esi
 5d0:	50                   	push   %eax
 5d1:	e8 f9 fe ff ff       	call   4cf <parseredirs>
 5d6:	89 45 d4             	mov    %eax,-0x2c(%ebp)
 5d9:	83 c4 10             	add    $0x10,%esp
 5dc:	83 ec 04             	sub    $0x4,%esp
 5df:	68 3f 10 00 00       	push   $0x103f
 5e4:	57                   	push   %edi
 5e5:	56                   	push   %esi
 5e6:	e8 7e fe ff ff       	call   469 <peek>
 5eb:	83 c4 10             	add    $0x10,%esp
 5ee:	85 c0                	test   %eax,%eax
 5f0:	75 7e                	jne    670 <parseexec+0xd1>
 5f2:	8d 45 e0             	lea    -0x20(%ebp),%eax
 5f5:	50                   	push   %eax
 5f6:	8d 45 e4             	lea    -0x1c(%ebp),%eax
 5f9:	50                   	push   %eax
 5fa:	57                   	push   %edi
 5fb:	56                   	push   %esi
 5fc:	e8 31 fd ff ff       	call   332 <gettoken>
 601:	83 c4 10             	add    $0x10,%esp
 604:	85 c0                	test   %eax,%eax
 606:	74 68                	je     670 <parseexec+0xd1>
 608:	83 f8 61             	cmp    $0x61,%eax
 60b:	75 49                	jne    656 <parseexec+0xb7>
 60d:	8b 45 e4             	mov    -0x1c(%ebp),%eax
 610:	8b 55 d0             	mov    -0x30(%ebp),%edx
 613:	89 44 9a 04          	mov    %eax,0x4(%edx,%ebx,4)
 617:	8b 45 e0             	mov    -0x20(%ebp),%eax
 61a:	89 44 9a 2c          	mov    %eax,0x2c(%edx,%ebx,4)
 61e:	83 c3 01             	add    $0x1,%ebx
 621:	83 fb 0a             	cmp    $0xa,%ebx
 624:	74 3d                	je     663 <parseexec+0xc4>
 626:	83 ec 04             	sub    $0x4,%esp
 629:	57                   	push   %edi
 62a:	56                   	push   %esi
 62b:	ff 75 d4             	pushl  -0x2c(%ebp)
 62e:	e8 9c fe ff ff       	call   4cf <parseredirs>
 633:	89 45 d4             	mov    %eax,-0x2c(%ebp)
 636:	83 c4 10             	add    $0x10,%esp
 639:	eb a1                	jmp    5dc <parseexec+0x3d>
 63b:	83 ec 08             	sub    $0x8,%esp
 63e:	57                   	push   %edi
 63f:	56                   	push   %esi
 640:	e8 30 01 00 00       	call   775 <parseblock>
 645:	89 45 d4             	mov    %eax,-0x2c(%ebp)
 648:	83 c4 10             	add    $0x10,%esp
 64b:	8b 45 d4             	mov    -0x2c(%ebp),%eax
 64e:	8d 65 f4             	lea    -0xc(%ebp),%esp
 651:	5b                   	pop    %ebx
 652:	5e                   	pop    %esi
 653:	5f                   	pop    %edi
 654:	5d                   	pop    %ebp
 655:	c3                   	ret    
 656:	83 ec 0c             	sub    $0xc,%esp
 659:	68 2a 10 00 00       	push   $0x102a
 65e:	e8 e2 f9 ff ff       	call   45 <panic>
 663:	83 ec 0c             	sub    $0xc,%esp
 666:	68 31 10 00 00       	push   $0x1031
 66b:	e8 d5 f9 ff ff       	call   45 <panic>
 670:	8b 45 d0             	mov    -0x30(%ebp),%eax
 673:	8d 04 98             	lea    (%eax,%ebx,4),%eax
 676:	c7 40 04 00 00 00 00 	movl   $0x0,0x4(%eax)
 67d:	c7 40 2c 00 00 00 00 	movl   $0x0,0x2c(%eax)
 684:	eb c5                	jmp    64b <parseexec+0xac>

00000686 <parsepipe>:
 686:	55                   	push   %ebp
 687:	89 e5                	mov    %esp,%ebp
 689:	57                   	push   %edi
 68a:	56                   	push   %esi
 68b:	53                   	push   %ebx
 68c:	83 ec 14             	sub    $0x14,%esp
 68f:	8b 5d 08             	mov    0x8(%ebp),%ebx
 692:	8b 75 0c             	mov    0xc(%ebp),%esi
 695:	56                   	push   %esi
 696:	53                   	push   %ebx
 697:	e8 03 ff ff ff       	call   59f <parseexec>
 69c:	89 c7                	mov    %eax,%edi
 69e:	83 c4 0c             	add    $0xc,%esp
 6a1:	68 44 10 00 00       	push   $0x1044
 6a6:	56                   	push   %esi
 6a7:	53                   	push   %ebx
 6a8:	e8 bc fd ff ff       	call   469 <peek>
 6ad:	83 c4 10             	add    $0x10,%esp
 6b0:	85 c0                	test   %eax,%eax
 6b2:	75 0a                	jne    6be <parsepipe+0x38>
 6b4:	89 f8                	mov    %edi,%eax
 6b6:	8d 65 f4             	lea    -0xc(%ebp),%esp
 6b9:	5b                   	pop    %ebx
 6ba:	5e                   	pop    %esi
 6bb:	5f                   	pop    %edi
 6bc:	5d                   	pop    %ebp
 6bd:	c3                   	ret    
 6be:	6a 00                	push   $0x0
 6c0:	6a 00                	push   $0x0
 6c2:	56                   	push   %esi
 6c3:	53                   	push   %ebx
 6c4:	e8 69 fc ff ff       	call   332 <gettoken>
 6c9:	83 c4 08             	add    $0x8,%esp
 6cc:	56                   	push   %esi
 6cd:	53                   	push   %ebx
 6ce:	e8 b3 ff ff ff       	call   686 <parsepipe>
 6d3:	83 c4 08             	add    $0x8,%esp
 6d6:	50                   	push   %eax
 6d7:	57                   	push   %edi
 6d8:	e8 b9 fb ff ff       	call   296 <pipecmd>
 6dd:	89 c7                	mov    %eax,%edi
 6df:	83 c4 10             	add    $0x10,%esp
 6e2:	eb d0                	jmp    6b4 <parsepipe+0x2e>

000006e4 <parseline>:
 6e4:	55                   	push   %ebp
 6e5:	89 e5                	mov    %esp,%ebp
 6e7:	57                   	push   %edi
 6e8:	56                   	push   %esi
 6e9:	53                   	push   %ebx
 6ea:	83 ec 14             	sub    $0x14,%esp
 6ed:	8b 5d 08             	mov    0x8(%ebp),%ebx
 6f0:	8b 75 0c             	mov    0xc(%ebp),%esi
 6f3:	56                   	push   %esi
 6f4:	53                   	push   %ebx
 6f5:	e8 8c ff ff ff       	call   686 <parsepipe>
 6fa:	89 c7                	mov    %eax,%edi
 6fc:	83 c4 10             	add    $0x10,%esp
 6ff:	eb 18                	jmp    719 <parseline+0x35>
 701:	6a 00                	push   $0x0
 703:	6a 00                	push   $0x0
 705:	56                   	push   %esi
 706:	53                   	push   %ebx
 707:	e8 26 fc ff ff       	call   332 <gettoken>
 70c:	89 3c 24             	mov    %edi,(%esp)
 70f:	e8 ee fb ff ff       	call   302 <backcmd>
 714:	89 c7                	mov    %eax,%edi
 716:	83 c4 10             	add    $0x10,%esp
 719:	83 ec 04             	sub    $0x4,%esp
 71c:	68 46 10 00 00       	push   $0x1046
 721:	56                   	push   %esi
 722:	53                   	push   %ebx
 723:	e8 41 fd ff ff       	call   469 <peek>
 728:	83 c4 10             	add    $0x10,%esp
 72b:	85 c0                	test   %eax,%eax
 72d:	75 d2                	jne    701 <parseline+0x1d>
 72f:	83 ec 04             	sub    $0x4,%esp
 732:	68 42 10 00 00       	push   $0x1042
 737:	56                   	push   %esi
 738:	53                   	push   %ebx
 739:	e8 2b fd ff ff       	call   469 <peek>
 73e:	83 c4 10             	add    $0x10,%esp
 741:	85 c0                	test   %eax,%eax
 743:	75 0a                	jne    74f <parseline+0x6b>
 745:	89 f8                	mov    %edi,%eax
 747:	8d 65 f4             	lea    -0xc(%ebp),%esp
 74a:	5b                   	pop    %ebx
 74b:	5e                   	pop    %esi
 74c:	5f                   	pop    %edi
 74d:	5d                   	pop    %ebp
 74e:	c3                   	ret    
 74f:	6a 00                	push   $0x0
 751:	6a 00                	push   $0x0
 753:	56                   	push   %esi
 754:	53                   	push   %ebx
 755:	e8 d8 fb ff ff       	call   332 <gettoken>
 75a:	83 c4 08             	add    $0x8,%esp
 75d:	56                   	push   %esi
 75e:	53                   	push   %ebx
 75f:	e8 80 ff ff ff       	call   6e4 <parseline>
 764:	83 c4 08             	add    $0x8,%esp
 767:	50                   	push   %eax
 768:	57                   	push   %edi
 769:	e8 5e fb ff ff       	call   2cc <listcmd>
 76e:	89 c7                	mov    %eax,%edi
 770:	83 c4 10             	add    $0x10,%esp
 773:	eb d0                	jmp    745 <parseline+0x61>

00000775 <parseblock>:
 775:	55                   	push   %ebp
 776:	89 e5                	mov    %esp,%ebp
 778:	57                   	push   %edi
 779:	56                   	push   %esi
 77a:	53                   	push   %ebx
 77b:	83 ec 10             	sub    $0x10,%esp
 77e:	8b 5d 08             	mov    0x8(%ebp),%ebx
 781:	8b 75 0c             	mov    0xc(%ebp),%esi
 784:	68 28 10 00 00       	push   $0x1028
 789:	56                   	push   %esi
 78a:	53                   	push   %ebx
 78b:	e8 d9 fc ff ff       	call   469 <peek>
 790:	83 c4 10             	add    $0x10,%esp
 793:	85 c0                	test   %eax,%eax
 795:	74 4b                	je     7e2 <parseblock+0x6d>
 797:	6a 00                	push   $0x0
 799:	6a 00                	push   $0x0
 79b:	56                   	push   %esi
 79c:	53                   	push   %ebx
 79d:	e8 90 fb ff ff       	call   332 <gettoken>
 7a2:	83 c4 08             	add    $0x8,%esp
 7a5:	56                   	push   %esi
 7a6:	53                   	push   %ebx
 7a7:	e8 38 ff ff ff       	call   6e4 <parseline>
 7ac:	89 c7                	mov    %eax,%edi
 7ae:	83 c4 0c             	add    $0xc,%esp
 7b1:	68 64 10 00 00       	push   $0x1064
 7b6:	56                   	push   %esi
 7b7:	53                   	push   %ebx
 7b8:	e8 ac fc ff ff       	call   469 <peek>
 7bd:	83 c4 10             	add    $0x10,%esp
 7c0:	85 c0                	test   %eax,%eax
 7c2:	74 2b                	je     7ef <parseblock+0x7a>
 7c4:	6a 00                	push   $0x0
 7c6:	6a 00                	push   $0x0
 7c8:	56                   	push   %esi
 7c9:	53                   	push   %ebx
 7ca:	e8 63 fb ff ff       	call   332 <gettoken>
 7cf:	83 c4 0c             	add    $0xc,%esp
 7d2:	56                   	push   %esi
 7d3:	53                   	push   %ebx
 7d4:	57                   	push   %edi
 7d5:	e8 f5 fc ff ff       	call   4cf <parseredirs>
 7da:	8d 65 f4             	lea    -0xc(%ebp),%esp
 7dd:	5b                   	pop    %ebx
 7de:	5e                   	pop    %esi
 7df:	5f                   	pop    %edi
 7e0:	5d                   	pop    %ebp
 7e1:	c3                   	ret    
 7e2:	83 ec 0c             	sub    $0xc,%esp
 7e5:	68 48 10 00 00       	push   $0x1048
 7ea:	e8 56 f8 ff ff       	call   45 <panic>
 7ef:	83 ec 0c             	sub    $0xc,%esp
 7f2:	68 53 10 00 00       	push   $0x1053
 7f7:	e8 49 f8 ff ff       	call   45 <panic>

000007fc <nulterminate>:
 7fc:	55                   	push   %ebp
 7fd:	89 e5                	mov    %esp,%ebp
 7ff:	53                   	push   %ebx
 800:	83 ec 04             	sub    $0x4,%esp
 803:	8b 5d 08             	mov    0x8(%ebp),%ebx
 806:	85 db                	test   %ebx,%ebx
 808:	74 3c                	je     846 <nulterminate+0x4a>
 80a:	83 3b 05             	cmpl   $0x5,(%ebx)
 80d:	77 37                	ja     846 <nulterminate+0x4a>
 80f:	8b 03                	mov    (%ebx),%eax
 811:	ff 24 85 a4 10 00 00 	jmp    *0x10a4(,%eax,4)
 818:	83 7b 04 00          	cmpl   $0x0,0x4(%ebx)
 81c:	74 28                	je     846 <nulterminate+0x4a>
 81e:	8d 43 08             	lea    0x8(%ebx),%eax
 821:	8b 50 24             	mov    0x24(%eax),%edx
 824:	c6 02 00             	movb   $0x0,(%edx)
 827:	83 c0 04             	add    $0x4,%eax
 82a:	83 78 fc 00          	cmpl   $0x0,-0x4(%eax)
 82e:	75 f1                	jne    821 <nulterminate+0x25>
 830:	eb 14                	jmp    846 <nulterminate+0x4a>
 832:	83 ec 0c             	sub    $0xc,%esp
 835:	ff 73 04             	pushl  0x4(%ebx)
 838:	e8 bf ff ff ff       	call   7fc <nulterminate>
 83d:	8b 43 0c             	mov    0xc(%ebx),%eax
 840:	c6 00 00             	movb   $0x0,(%eax)
 843:	83 c4 10             	add    $0x10,%esp
 846:	89 d8                	mov    %ebx,%eax
 848:	8b 5d fc             	mov    -0x4(%ebp),%ebx
 84b:	c9                   	leave  
 84c:	c3                   	ret    
 84d:	83 ec 0c             	sub    $0xc,%esp
 850:	ff 73 04             	pushl  0x4(%ebx)
 853:	e8 a4 ff ff ff       	call   7fc <nulterminate>
 858:	83 c4 04             	add    $0x4,%esp
 85b:	ff 73 08             	pushl  0x8(%ebx)
 85e:	e8 99 ff ff ff       	call   7fc <nulterminate>
 863:	83 c4 10             	add    $0x10,%esp
 866:	eb de                	jmp    846 <nulterminate+0x4a>
 868:	83 ec 0c             	sub    $0xc,%esp
 86b:	ff 73 04             	pushl  0x4(%ebx)
 86e:	e8 89 ff ff ff       	call   7fc <nulterminate>
 873:	83 c4 04             	add    $0x4,%esp
 876:	ff 73 08             	pushl  0x8(%ebx)
 879:	e8 7e ff ff ff       	call   7fc <nulterminate>
 87e:	83 c4 10             	add    $0x10,%esp
 881:	eb c3                	jmp    846 <nulterminate+0x4a>
 883:	83 ec 0c             	sub    $0xc,%esp
 886:	ff 73 04             	pushl  0x4(%ebx)
 889:	e8 6e ff ff ff       	call   7fc <nulterminate>
 88e:	83 c4 10             	add    $0x10,%esp
 891:	eb b3                	jmp    846 <nulterminate+0x4a>

00000893 <parsecmd>:
 893:	55                   	push   %ebp
 894:	89 e5                	mov    %esp,%ebp
 896:	56                   	push   %esi
 897:	53                   	push   %ebx
 898:	8b 5d 08             	mov    0x8(%ebp),%ebx
 89b:	83 ec 0c             	sub    $0xc,%esp
 89e:	53                   	push   %ebx
 89f:	e8 7d 01 00 00       	call   a21 <strlen>
 8a4:	01 c3                	add    %eax,%ebx
 8a6:	83 c4 08             	add    $0x8,%esp
 8a9:	53                   	push   %ebx
 8aa:	8d 45 08             	lea    0x8(%ebp),%eax
 8ad:	50                   	push   %eax
 8ae:	e8 31 fe ff ff       	call   6e4 <parseline>
 8b3:	89 c6                	mov    %eax,%esi
 8b5:	83 c4 0c             	add    $0xc,%esp
 8b8:	68 f2 0f 00 00       	push   $0xff2
 8bd:	53                   	push   %ebx
 8be:	8d 45 08             	lea    0x8(%ebp),%eax
 8c1:	50                   	push   %eax
 8c2:	e8 a2 fb ff ff       	call   469 <peek>
 8c7:	8b 45 08             	mov    0x8(%ebp),%eax
 8ca:	83 c4 10             	add    $0x10,%esp
 8cd:	39 d8                	cmp    %ebx,%eax
 8cf:	75 12                	jne    8e3 <parsecmd+0x50>
 8d1:	83 ec 0c             	sub    $0xc,%esp
 8d4:	56                   	push   %esi
 8d5:	e8 22 ff ff ff       	call   7fc <nulterminate>
 8da:	89 f0                	mov    %esi,%eax
 8dc:	8d 65 f8             	lea    -0x8(%ebp),%esp
 8df:	5b                   	pop    %ebx
 8e0:	5e                   	pop    %esi
 8e1:	5d                   	pop    %ebp
 8e2:	c3                   	ret    
 8e3:	83 ec 04             	sub    $0x4,%esp
 8e6:	50                   	push   %eax
 8e7:	68 66 10 00 00       	push   $0x1066
 8ec:	6a 02                	push   $0x2
 8ee:	e8 c9 03 00 00       	call   cbc <printf>
 8f3:	c7 04 24 2a 10 00 00 	movl   $0x102a,(%esp)
 8fa:	e8 46 f7 ff ff       	call   45 <panic>

000008ff <main>:
 8ff:	8d 4c 24 04          	lea    0x4(%esp),%ecx
 903:	83 e4 f0             	and    $0xfffffff0,%esp
 906:	ff 71 fc             	pushl  -0x4(%ecx)
 909:	55                   	push   %ebp
 90a:	89 e5                	mov    %esp,%ebp
 90c:	51                   	push   %ecx
 90d:	83 ec 04             	sub    $0x4,%esp
 910:	83 ec 08             	sub    $0x8,%esp
 913:	6a 02                	push   $0x2
 915:	68 75 10 00 00       	push   $0x1075
 91a:	e8 b3 02 00 00       	call   bd2 <open>
 91f:	83 c4 10             	add    $0x10,%esp
 922:	85 c0                	test   %eax,%eax
 924:	78 21                	js     947 <main+0x48>
 926:	83 f8 02             	cmp    $0x2,%eax
 929:	7e e5                	jle    910 <main+0x11>
 92b:	83 ec 0c             	sub    $0xc,%esp
 92e:	50                   	push   %eax
 92f:	e8 86 02 00 00       	call   bba <close>
 934:	83 c4 10             	add    $0x10,%esp
 937:	eb 0e                	jmp    947 <main+0x48>
 939:	e8 21 f7 ff ff       	call   5f <fork1>
 93e:	85 c0                	test   %eax,%eax
 940:	74 76                	je     9b8 <main+0xb9>
 942:	e8 53 02 00 00       	call   b9a <wait>
 947:	83 ec 08             	sub    $0x8,%esp
 94a:	6a 64                	push   $0x64
 94c:	68 20 16 00 00       	push   $0x1620
 951:	e8 aa f6 ff ff       	call   0 <getcmd>
 956:	83 c4 10             	add    $0x10,%esp
 959:	85 c0                	test   %eax,%eax
 95b:	78 70                	js     9cd <main+0xce>
 95d:	80 3d 20 16 00 00 63 	cmpb   $0x63,0x1620
 964:	75 d3                	jne    939 <main+0x3a>
 966:	80 3d 21 16 00 00 64 	cmpb   $0x64,0x1621
 96d:	75 ca                	jne    939 <main+0x3a>
 96f:	80 3d 22 16 00 00 20 	cmpb   $0x20,0x1622
 976:	75 c1                	jne    939 <main+0x3a>
 978:	83 ec 0c             	sub    $0xc,%esp
 97b:	68 20 16 00 00       	push   $0x1620
 980:	e8 9c 00 00 00       	call   a21 <strlen>
 985:	c6 80 1f 16 00 00 00 	movb   $0x0,0x161f(%eax)
 98c:	c7 04 24 23 16 00 00 	movl   $0x1623,(%esp)
 993:	e8 6a 02 00 00       	call   c02 <chdir>
 998:	83 c4 10             	add    $0x10,%esp
 99b:	85 c0                	test   %eax,%eax
 99d:	79 a8                	jns    947 <main+0x48>
 99f:	83 ec 04             	sub    $0x4,%esp
 9a2:	68 23 16 00 00       	push   $0x1623
 9a7:	68 7d 10 00 00       	push   $0x107d
 9ac:	6a 02                	push   $0x2
 9ae:	e8 09 03 00 00       	call   cbc <printf>
 9b3:	83 c4 10             	add    $0x10,%esp
 9b6:	eb 8f                	jmp    947 <main+0x48>
 9b8:	83 ec 0c             	sub    $0xc,%esp
 9bb:	68 20 16 00 00       	push   $0x1620
 9c0:	e8 ce fe ff ff       	call   893 <parsecmd>
 9c5:	89 04 24             	mov    %eax,(%esp)
 9c8:	e8 b1 f6 ff ff       	call   7e <runcmd>
 9cd:	e8 c0 01 00 00       	call   b92 <exit>

000009d2 <strcpy>:
#include "user.h"
#include "x86.h"

char*
strcpy(char *s, const char *t)
{
 9d2:	55                   	push   %ebp
 9d3:	89 e5                	mov    %esp,%ebp
 9d5:	53                   	push   %ebx
 9d6:	8b 45 08             	mov    0x8(%ebp),%eax
 9d9:	8b 4d 0c             	mov    0xc(%ebp),%ecx
  char *os;

  os = s;
  while((*s++ = *t++) != 0)
 9dc:	89 c2                	mov    %eax,%edx
 9de:	83 c1 01             	add    $0x1,%ecx
 9e1:	83 c2 01             	add    $0x1,%edx
 9e4:	0f b6 59 ff          	movzbl -0x1(%ecx),%ebx
 9e8:	88 5a ff             	mov    %bl,-0x1(%edx)
 9eb:	84 db                	test   %bl,%bl
 9ed:	75 ef                	jne    9de <strcpy+0xc>
    ;
  return os;
}
 9ef:	5b                   	pop    %ebx
 9f0:	5d                   	pop    %ebp
 9f1:	c3                   	ret    

000009f2 <strcmp>:

int
strcmp(const char *p, const char *q)
{
 9f2:	55                   	push   %ebp
 9f3:	89 e5                	mov    %esp,%ebp
 9f5:	8b 4d 08             	mov    0x8(%ebp),%ecx
 9f8:	8b 55 0c             	mov    0xc(%ebp),%edx
  while(*p && *p == *q)
 9fb:	0f b6 01             	movzbl (%ecx),%eax
 9fe:	84 c0                	test   %al,%al
 a00:	74 15                	je     a17 <strcmp+0x25>
 a02:	3a 02                	cmp    (%edx),%al
 a04:	75 11                	jne    a17 <strcmp+0x25>
    p++, q++;
 a06:	83 c1 01             	add    $0x1,%ecx
 a09:	83 c2 01             	add    $0x1,%edx
  while(*p && *p == *q)
 a0c:	0f b6 01             	movzbl (%ecx),%eax
 a0f:	84 c0                	test   %al,%al
 a11:	74 04                	je     a17 <strcmp+0x25>
 a13:	3a 02                	cmp    (%edx),%al
 a15:	74 ef                	je     a06 <strcmp+0x14>
  return (uchar)*p - (uchar)*q;
 a17:	0f b6 c0             	movzbl %al,%eax
 a1a:	0f b6 12             	movzbl (%edx),%edx
 a1d:	29 d0                	sub    %edx,%eax
}
 a1f:	5d                   	pop    %ebp
 a20:	c3                   	ret    

00000a21 <strlen>:

uint
strlen(const char *s)
{
 a21:	55                   	push   %ebp
 a22:	89 e5                	mov    %esp,%ebp
 a24:	8b 4d 08             	mov    0x8(%ebp),%ecx
  int n;

  for(n = 0; s[n]; n++)
 a27:	80 39 00             	cmpb   $0x0,(%ecx)
 a2a:	74 12                	je     a3e <strlen+0x1d>
 a2c:	ba 00 00 00 00       	mov    $0x0,%edx
 a31:	83 c2 01             	add    $0x1,%edx
 a34:	89 d0                	mov    %edx,%eax
 a36:	80 3c 11 00          	cmpb   $0x0,(%ecx,%edx,1)
 a3a:	75 f5                	jne    a31 <strlen+0x10>
    ;
  return n;
}
 a3c:	5d                   	pop    %ebp
 a3d:	c3                   	ret    
  for(n = 0; s[n]; n++)
 a3e:	b8 00 00 00 00       	mov    $0x0,%eax
  return n;
 a43:	eb f7                	jmp    a3c <strlen+0x1b>

00000a45 <memset>:

void*
memset(void *dst, int c, uint n)
{
 a45:	55                   	push   %ebp
 a46:	89 e5                	mov    %esp,%ebp
 a48:	57                   	push   %edi
 a49:	8b 55 08             	mov    0x8(%ebp),%edx
}

static inline void
stosb(void *addr, int data, int cnt)
{
  asm volatile("cld; rep stosb" :
 a4c:	89 d7                	mov    %edx,%edi
 a4e:	8b 4d 10             	mov    0x10(%ebp),%ecx
 a51:	8b 45 0c             	mov    0xc(%ebp),%eax
 a54:	fc                   	cld    
 a55:	f3 aa                	rep stos %al,%es:(%edi)
  stosb(dst, c, n);
  return dst;
}
 a57:	89 d0                	mov    %edx,%eax
 a59:	5f                   	pop    %edi
 a5a:	5d                   	pop    %ebp
 a5b:	c3                   	ret    

00000a5c <strchr>:

char*
strchr(const char *s, char c)
{
 a5c:	55                   	push   %ebp
 a5d:	89 e5                	mov    %esp,%ebp
 a5f:	53                   	push   %ebx
 a60:	8b 45 08             	mov    0x8(%ebp),%eax
 a63:	8b 5d 0c             	mov    0xc(%ebp),%ebx
  for(; *s; s++)
 a66:	0f b6 10             	movzbl (%eax),%edx
 a69:	84 d2                	test   %dl,%dl
 a6b:	74 1e                	je     a8b <strchr+0x2f>
 a6d:	89 d9                	mov    %ebx,%ecx
    if(*s == c)
 a6f:	38 d3                	cmp    %dl,%bl
 a71:	74 15                	je     a88 <strchr+0x2c>
  for(; *s; s++)
 a73:	83 c0 01             	add    $0x1,%eax
 a76:	0f b6 10             	movzbl (%eax),%edx
 a79:	84 d2                	test   %dl,%dl
 a7b:	74 06                	je     a83 <strchr+0x27>
    if(*s == c)
 a7d:	38 ca                	cmp    %cl,%dl
 a7f:	75 f2                	jne    a73 <strchr+0x17>
 a81:	eb 05                	jmp    a88 <strchr+0x2c>
      return (char*)s;
  return 0;
 a83:	b8 00 00 00 00       	mov    $0x0,%eax
}
 a88:	5b                   	pop    %ebx
 a89:	5d                   	pop    %ebp
 a8a:	c3                   	ret    
  return 0;
 a8b:	b8 00 00 00 00       	mov    $0x0,%eax
 a90:	eb f6                	jmp    a88 <strchr+0x2c>

00000a92 <gets>:

char*
gets(char *buf, int max)
{
 a92:	55                   	push   %ebp
 a93:	89 e5                	mov    %esp,%ebp
 a95:	57                   	push   %edi
 a96:	56                   	push   %esi
 a97:	53                   	push   %ebx
 a98:	83 ec 1c             	sub    $0x1c,%esp
  int i, cc;
  char c;

  for(i=0; i+1 < max; ){
 a9b:	be 00 00 00 00       	mov    $0x0,%esi
    cc = read(0, &c, 1);
 aa0:	8d 7d e7             	lea    -0x19(%ebp),%edi
  for(i=0; i+1 < max; ){
 aa3:	8d 5e 01             	lea    0x1(%esi),%ebx
 aa6:	3b 5d 0c             	cmp    0xc(%ebp),%ebx
 aa9:	7d 2b                	jge    ad6 <gets+0x44>
    cc = read(0, &c, 1);
 aab:	83 ec 04             	sub    $0x4,%esp
 aae:	6a 01                	push   $0x1
 ab0:	57                   	push   %edi
 ab1:	6a 00                	push   $0x0
 ab3:	e8 f2 00 00 00       	call   baa <read>
    if(cc < 1)
 ab8:	83 c4 10             	add    $0x10,%esp
 abb:	85 c0                	test   %eax,%eax
 abd:	7e 17                	jle    ad6 <gets+0x44>
      break;
    buf[i++] = c;
 abf:	0f b6 45 e7          	movzbl -0x19(%ebp),%eax
 ac3:	8b 55 08             	mov    0x8(%ebp),%edx
 ac6:	88 44 1a ff          	mov    %al,-0x1(%edx,%ebx,1)
  for(i=0; i+1 < max; ){
 aca:	89 de                	mov    %ebx,%esi
    if(c == '\n' || c == '\r')
 acc:	3c 0a                	cmp    $0xa,%al
 ace:	74 04                	je     ad4 <gets+0x42>
 ad0:	3c 0d                	cmp    $0xd,%al
 ad2:	75 cf                	jne    aa3 <gets+0x11>
  for(i=0; i+1 < max; ){
 ad4:	89 de                	mov    %ebx,%esi
      break;
  }
  buf[i] = '\0';
 ad6:	8b 45 08             	mov    0x8(%ebp),%eax
 ad9:	c6 04 30 00          	movb   $0x0,(%eax,%esi,1)
  return buf;
}
 add:	8d 65 f4             	lea    -0xc(%ebp),%esp
 ae0:	5b                   	pop    %ebx
 ae1:	5e                   	pop    %esi
 ae2:	5f                   	pop    %edi
 ae3:	5d                   	pop    %ebp
 ae4:	c3                   	ret    

00000ae5 <stat>:

int
stat(const char *n, struct stat *st)
{
 ae5:	55                   	push   %ebp
 ae6:	89 e5                	mov    %esp,%ebp
 ae8:	56                   	push   %esi
 ae9:	53                   	push   %ebx
  int fd;
  int r;

  fd = open(n, O_RDONLY);
 aea:	83 ec 08             	sub    $0x8,%esp
 aed:	6a 00                	push   $0x0
 aef:	ff 75 08             	pushl  0x8(%ebp)
 af2:	e8 db 00 00 00       	call   bd2 <open>
  if(fd < 0)
 af7:	83 c4 10             	add    $0x10,%esp
 afa:	85 c0                	test   %eax,%eax
 afc:	78 24                	js     b22 <stat+0x3d>
 afe:	89 c3                	mov    %eax,%ebx
    return -1;
  r = fstat(fd, st);
 b00:	83 ec 08             	sub    $0x8,%esp
 b03:	ff 75 0c             	pushl  0xc(%ebp)
 b06:	50                   	push   %eax
 b07:	e8 de 00 00 00       	call   bea <fstat>
 b0c:	89 c6                	mov    %eax,%esi
  close(fd);
 b0e:	89 1c 24             	mov    %ebx,(%esp)
 b11:	e8 a4 00 00 00       	call   bba <close>
  return r;
 b16:	83 c4 10             	add    $0x10,%esp
}
 b19:	89 f0                	mov    %esi,%eax
 b1b:	8d 65 f8             	lea    -0x8(%ebp),%esp
 b1e:	5b                   	pop    %ebx
 b1f:	5e                   	pop    %esi
 b20:	5d                   	pop    %ebp
 b21:	c3                   	ret    
    return -1;
 b22:	be ff ff ff ff       	mov    $0xffffffff,%esi
 b27:	eb f0                	jmp    b19 <stat+0x34>

00000b29 <atoi>:

int
atoi(const char *s)
{
 b29:	55                   	push   %ebp
 b2a:	89 e5                	mov    %esp,%ebp
 b2c:	53                   	push   %ebx
 b2d:	8b 4d 08             	mov    0x8(%ebp),%ecx
  int n;

  n = 0;
  while('0' <= *s && *s <= '9')
 b30:	0f b6 11             	movzbl (%ecx),%edx
 b33:	8d 42 d0             	lea    -0x30(%edx),%eax
 b36:	3c 09                	cmp    $0x9,%al
 b38:	77 20                	ja     b5a <atoi+0x31>
  n = 0;
 b3a:	b8 00 00 00 00       	mov    $0x0,%eax
    n = n*10 + *s++ - '0';
 b3f:	83 c1 01             	add    $0x1,%ecx
 b42:	8d 04 80             	lea    (%eax,%eax,4),%eax
 b45:	0f be d2             	movsbl %dl,%edx
 b48:	8d 44 42 d0          	lea    -0x30(%edx,%eax,2),%eax
  while('0' <= *s && *s <= '9')
 b4c:	0f b6 11             	movzbl (%ecx),%edx
 b4f:	8d 5a d0             	lea    -0x30(%edx),%ebx
 b52:	80 fb 09             	cmp    $0x9,%bl
 b55:	76 e8                	jbe    b3f <atoi+0x16>
  return n;
}
 b57:	5b                   	pop    %ebx
 b58:	5d                   	pop    %ebp
 b59:	c3                   	ret    
  n = 0;
 b5a:	b8 00 00 00 00       	mov    $0x0,%eax
  return n;
 b5f:	eb f6                	jmp    b57 <atoi+0x2e>

00000b61 <memmove>:

void*
memmove(void *vdst, const void *vsrc, int n)
{
 b61:	55                   	push   %ebp
 b62:	89 e5                	mov    %esp,%ebp
 b64:	56                   	push   %esi
 b65:	53                   	push   %ebx
 b66:	8b 45 08             	mov    0x8(%ebp),%eax
 b69:	8b 75 0c             	mov    0xc(%ebp),%esi
 b6c:	8b 5d 10             	mov    0x10(%ebp),%ebx
  char *dst;
  const char *src;

  dst = vdst;
  src = vsrc;
  while(n-- > 0)
 b6f:	85 db                	test   %ebx,%ebx
 b71:	7e 13                	jle    b86 <memmove+0x25>
 b73:	ba 00 00 00 00       	mov    $0x0,%edx
    *dst++ = *src++;
 b78:	0f b6 0c 16          	movzbl (%esi,%edx,1),%ecx
 b7c:	88 0c 10             	mov    %cl,(%eax,%edx,1)
 b7f:	83 c2 01             	add    $0x1,%edx
  while(n-- > 0)
 b82:	39 d3                	cmp    %edx,%ebx
 b84:	75 f2                	jne    b78 <memmove+0x17>
  return vdst;
}
 b86:	5b                   	pop    %ebx
 b87:	5e                   	pop    %esi
 b88:	5d                   	pop    %ebp
 b89:	c3                   	ret    

00000b8a <fork>:
  name: \
    movl $SYS_ ## name, %eax; \
    int $T_SYSCALL; \
    ret

SYSCALL(fork)
 b8a:	b8 01 00 00 00       	mov    $0x1,%eax
 b8f:	cd 40                	int    $0x40
 b91:	c3                   	ret    

00000b92 <exit>:
SYSCALL(exit)
 b92:	b8 02 00 00 00       	mov    $0x2,%eax
 b97:	cd 40                	int    $0x40
 b99:	c3                   	ret    

00000b9a <wait>:
SYSCALL(wait)
 b9a:	b8 03 00 00 00       	mov    $0x3,%eax
 b9f:	cd 40                	int    $0x40
 ba1:	c3                   	ret    

00000ba2 <pipe>:
SYSCALL(pipe)
 ba2:	b8 04 00 00 00       	mov    $0x4,%eax
 ba7:	cd 40                	int    $0x40
 ba9:	c3                   	ret    

00000baa <read>:
SYSCALL(read)
 baa:	b8 05 00 00 00       	mov    $0x5,%eax
 baf:	cd 40                	int    $0x40
 bb1:	c3                   	ret    

00000bb2 <write>:
SYSCALL(write)
 bb2:	b8 10 00 00 00       	mov    $0x10,%eax
 bb7:	cd 40                	int    $0x40
 bb9:	c3                   	ret    

00000bba <close>:
SYSCALL(close)
 bba:	b8 15 00 00 00       	mov    $0x15,%eax
 bbf:	cd 40                	int    $0x40
 bc1:	c3                   	ret    

00000bc2 <kill>:
SYSCALL(kill)
 bc2:	b8 06 00 00 00       	mov    $0x6,%eax
 bc7:	cd 40                	int    $0x40
 bc9:	c3                   	ret    

00000bca <exec>:
SYSCALL(exec)
 bca:	b8 07 00 00 00       	mov    $0x7,%eax
 bcf:	cd 40                	int    $0x40
 bd1:	c3                   	ret    

00000bd2 <open>:
SYSCALL(open)
 bd2:	b8 0f 00 00 00       	mov    $0xf,%eax
 bd7:	cd 40                	int    $0x40
 bd9:	c3                   	ret    

00000bda <mknod>:
SYSCALL(mknod)
 bda:	b8 11 00 00 00       	mov    $0x11,%eax
 bdf:	cd 40                	int    $0x40
 be1:	c3                   	ret    

00000be2 <unlink>:
SYSCALL(unlink)
 be2:	b8 12 00 00 00       	mov    $0x12,%eax
 be7:	cd 40                	int    $0x40
 be9:	c3                   	ret    

00000bea <fstat>:
SYSCALL(fstat)
 bea:	b8 08 00 00 00       	mov    $0x8,%eax
 bef:	cd 40                	int    $0x40
 bf1:	c3                   	ret    

00000bf2 <link>:
SYSCALL(link)
 bf2:	b8 13 00 00 00       	mov    $0x13,%eax
 bf7:	cd 40                	int    $0x40
 bf9:	c3                   	ret    

00000bfa <mkdir>:
SYSCALL(mkdir)
 bfa:	b8 14 00 00 00       	mov    $0x14,%eax
 bff:	cd 40                	int    $0x40
 c01:	c3                   	ret    

00000c02 <chdir>:
SYSCALL(chdir)
 c02:	b8 09 00 00 00       	mov    $0x9,%eax
 c07:	cd 40                	int    $0x40
 c09:	c3                   	ret    

00000c0a <dup>:
SYSCALL(dup)
 c0a:	b8 0a 00 00 00       	mov    $0xa,%eax
 c0f:	cd 40                	int    $0x40
 c11:	c3                   	ret    

00000c12 <getpid>:
SYSCALL(getpid)
 c12:	b8 0b 00 00 00       	mov    $0xb,%eax
 c17:	cd 40                	int    $0x40
 c19:	c3                   	ret    

00000c1a <sbrk>:
SYSCALL(sbrk)
 c1a:	b8 0c 00 00 00       	mov    $0xc,%eax
 c1f:	cd 40                	int    $0x40
 c21:	c3                   	ret    

00000c22 <sleep>:
SYSCALL(sleep)
 c22:	b8 0d 00 00 00       	mov    $0xd,%eax
 c27:	cd 40                	int    $0x40
 c29:	c3                   	ret    

00000c2a <uptime>:
SYSCALL(uptime)
 c2a:	b8 0e 00 00 00       	mov    $0xe,%eax
 c2f:	cd 40                	int    $0x40
 c31:	c3                   	ret    

00000c32 <printint>:
  write(fd, &c, 1);
}

static void
printint(int fd, int xx, int base, int sgn)
{
 c32:	55                   	push   %ebp
 c33:	89 e5                	mov    %esp,%ebp
 c35:	57                   	push   %edi
 c36:	56                   	push   %esi
 c37:	53                   	push   %ebx
 c38:	83 ec 3c             	sub    $0x3c,%esp
 c3b:	89 c6                	mov    %eax,%esi
  char buf[16];
  int i, neg;
  uint x;

  neg = 0;
  if(sgn && xx < 0){
 c3d:	83 7d 08 00          	cmpl   $0x0,0x8(%ebp)
 c41:	74 14                	je     c57 <printint+0x25>
 c43:	85 d2                	test   %edx,%edx
 c45:	79 10                	jns    c57 <printint+0x25>
    neg = 1;
    x = -xx;
 c47:	f7 da                	neg    %edx
    neg = 1;
 c49:	c7 45 c4 01 00 00 00 	movl   $0x1,-0x3c(%ebp)
  } else {
    x = xx;
  }

  i = 0;
 c50:	bf 00 00 00 00       	mov    $0x0,%edi
 c55:	eb 0b                	jmp    c62 <printint+0x30>
  neg = 0;
 c57:	c7 45 c4 00 00 00 00 	movl   $0x0,-0x3c(%ebp)
 c5e:	eb f0                	jmp    c50 <printint+0x1e>
  do{
    buf[i++] = digits[x % base];
 c60:	89 df                	mov    %ebx,%edi
 c62:	8d 5f 01             	lea    0x1(%edi),%ebx
 c65:	89 d0                	mov    %edx,%eax
 c67:	ba 00 00 00 00       	mov    $0x0,%edx
 c6c:	f7 f1                	div    %ecx
 c6e:	0f b6 92 c4 10 00 00 	movzbl 0x10c4(%edx),%edx
 c75:	88 54 1d d7          	mov    %dl,-0x29(%ebp,%ebx,1)
  }while((x /= base) != 0);
 c79:	89 c2                	mov    %eax,%edx
 c7b:	85 c0                	test   %eax,%eax
 c7d:	75 e1                	jne    c60 <printint+0x2e>
  if(neg)
 c7f:	83 7d c4 00          	cmpl   $0x0,-0x3c(%ebp)
 c83:	74 08                	je     c8d <printint+0x5b>
    buf[i++] = '-';
 c85:	c6 44 1d d8 2d       	movb   $0x2d,-0x28(%ebp,%ebx,1)
 c8a:	8d 5f 02             	lea    0x2(%edi),%ebx

  while(--i >= 0)
 c8d:	83 eb 01             	sub    $0x1,%ebx
 c90:	78 22                	js     cb4 <printint+0x82>
  write(fd, &c, 1);
 c92:	8d 7d d7             	lea    -0x29(%ebp),%edi
 c95:	0f b6 44 1d d8       	movzbl -0x28(%ebp,%ebx,1),%eax
 c9a:	88 45 d7             	mov    %al,-0x29(%ebp)
 c9d:	83 ec 04             	sub    $0x4,%esp
 ca0:	6a 01                	push   $0x1
 ca2:	57                   	push   %edi
 ca3:	56                   	push   %esi
 ca4:	e8 09 ff ff ff       	call   bb2 <write>
  while(--i >= 0)
 ca9:	83 eb 01             	sub    $0x1,%ebx
 cac:	83 c4 10             	add    $0x10,%esp
 caf:	83 fb ff             	cmp    $0xffffffff,%ebx
 cb2:	75 e1                	jne    c95 <printint+0x63>
    putc(fd, buf[i]);
}
 cb4:	8d 65 f4             	lea    -0xc(%ebp),%esp
 cb7:	5b                   	pop    %ebx
 cb8:	5e                   	pop    %esi
 cb9:	5f                   	pop    %edi
 cba:	5d                   	pop    %ebp
 cbb:	c3                   	ret    

00000cbc <printf>:

// Print to the given fd. Only understands %d, %x, %p, %s.
void
printf(int fd, const char *fmt, ...)
{
 cbc:	55                   	push   %ebp
 cbd:	89 e5                	mov    %esp,%ebp
 cbf:	57                   	push   %edi
 cc0:	56                   	push   %esi
 cc1:	53                   	push   %ebx
 cc2:	83 ec 2c             	sub    $0x2c,%esp
  int c, i, state;
  uint *ap;

  state = 0;
  ap = (uint*)(void*)&fmt + 1;
  for(i = 0; fmt[i]; i++){
 cc5:	8b 75 0c             	mov    0xc(%ebp),%esi
 cc8:	0f b6 1e             	movzbl (%esi),%ebx
 ccb:	84 db                	test   %bl,%bl
 ccd:	0f 84 b1 01 00 00    	je     e84 <printf+0x1c8>
 cd3:	83 c6 01             	add    $0x1,%esi
  ap = (uint*)(void*)&fmt + 1;
 cd6:	8d 45 10             	lea    0x10(%ebp),%eax
 cd9:	89 45 d4             	mov    %eax,-0x2c(%ebp)
  state = 0;
 cdc:	bf 00 00 00 00       	mov    $0x0,%edi
 ce1:	eb 2d                	jmp    d10 <printf+0x54>
 ce3:	88 5d e2             	mov    %bl,-0x1e(%ebp)
  write(fd, &c, 1);
 ce6:	83 ec 04             	sub    $0x4,%esp
 ce9:	6a 01                	push   $0x1
 ceb:	8d 45 e2             	lea    -0x1e(%ebp),%eax
 cee:	50                   	push   %eax
 cef:	ff 75 08             	pushl  0x8(%ebp)
 cf2:	e8 bb fe ff ff       	call   bb2 <write>
 cf7:	83 c4 10             	add    $0x10,%esp
 cfa:	eb 05                	jmp    d01 <printf+0x45>
      if(c == '%'){
        state = '%';
      } else {
        putc(fd, c);
      }
    } else if(state == '%'){
 cfc:	83 ff 25             	cmp    $0x25,%edi
 cff:	74 22                	je     d23 <printf+0x67>
 d01:	83 c6 01             	add    $0x1,%esi
  for(i = 0; fmt[i]; i++){
 d04:	0f b6 5e ff          	movzbl -0x1(%esi),%ebx
 d08:	84 db                	test   %bl,%bl
 d0a:	0f 84 74 01 00 00    	je     e84 <printf+0x1c8>
    c = fmt[i] & 0xff;
 d10:	0f be d3             	movsbl %bl,%edx
 d13:	0f b6 c3             	movzbl %bl,%eax
    if(state == 0){
 d16:	85 ff                	test   %edi,%edi
 d18:	75 e2                	jne    cfc <printf+0x40>
      if(c == '%'){
 d1a:	83 f8 25             	cmp    $0x25,%eax
 d1d:	75 c4                	jne    ce3 <printf+0x27>
        state = '%';
 d1f:	89 c7                	mov    %eax,%edi
 d21:	eb de                	jmp    d01 <printf+0x45>
      if(c == 'd'){
 d23:	83 f8 64             	cmp    $0x64,%eax
 d26:	74 59                	je     d81 <printf+0xc5>
        printint(fd, *ap, 10, 1);
        ap++;
      } else if(c == 'x' || c == 'p'){
 d28:	81 e2 f7 00 00 00    	and    $0xf7,%edx
 d2e:	83 fa 70             	cmp    $0x70,%edx
 d31:	74 7a                	je     dad <printf+0xf1>
        printint(fd, *ap, 16, 0);
        ap++;
      } else if(c == 's'){
 d33:	83 f8 73             	cmp    $0x73,%eax
 d36:	0f 84 9d 00 00 00    	je     dd9 <printf+0x11d>
          s = "(null)";
        while(*s != 0){
          putc(fd, *s);
          s++;
        }
      } else if(c == 'c'){
 d3c:	83 f8 63             	cmp    $0x63,%eax
 d3f:	0f 84 f2 00 00 00    	je     e37 <printf+0x17b>
        putc(fd, *ap);
        ap++;
      } else if(c == '%'){
 d45:	83 f8 25             	cmp    $0x25,%eax
 d48:	0f 84 15 01 00 00    	je     e63 <printf+0x1a7>
 d4e:	c6 45 e7 25          	movb   $0x25,-0x19(%ebp)
  write(fd, &c, 1);
 d52:	83 ec 04             	sub    $0x4,%esp
 d55:	6a 01                	push   $0x1
 d57:	8d 45 e7             	lea    -0x19(%ebp),%eax
 d5a:	50                   	push   %eax
 d5b:	ff 75 08             	pushl  0x8(%ebp)
 d5e:	e8 4f fe ff ff       	call   bb2 <write>
 d63:	88 5d e6             	mov    %bl,-0x1a(%ebp)
 d66:	83 c4 0c             	add    $0xc,%esp
 d69:	6a 01                	push   $0x1
 d6b:	8d 45 e6             	lea    -0x1a(%ebp),%eax
 d6e:	50                   	push   %eax
 d6f:	ff 75 08             	pushl  0x8(%ebp)
 d72:	e8 3b fe ff ff       	call   bb2 <write>
 d77:	83 c4 10             	add    $0x10,%esp
      } else {
        // Unknown % sequence.  Print it to draw attention.
        putc(fd, '%');
        putc(fd, c);
      }
      state = 0;
 d7a:	bf 00 00 00 00       	mov    $0x0,%edi
 d7f:	eb 80                	jmp    d01 <printf+0x45>
        printint(fd, *ap, 10, 1);
 d81:	83 ec 0c             	sub    $0xc,%esp
 d84:	6a 01                	push   $0x1
 d86:	b9 0a 00 00 00       	mov    $0xa,%ecx
 d8b:	8b 7d d4             	mov    -0x2c(%ebp),%edi
 d8e:	8b 17                	mov    (%edi),%edx
 d90:	8b 45 08             	mov    0x8(%ebp),%eax
 d93:	e8 9a fe ff ff       	call   c32 <printint>
        ap++;
 d98:	89 f8                	mov    %edi,%eax
 d9a:	83 c0 04             	add    $0x4,%eax
 d9d:	89 45 d4             	mov    %eax,-0x2c(%ebp)
 da0:	83 c4 10             	add    $0x10,%esp
      state = 0;
 da3:	bf 00 00 00 00       	mov    $0x0,%edi
 da8:	e9 54 ff ff ff       	jmp    d01 <printf+0x45>
        printint(fd, *ap, 16, 0);
 dad:	83 ec 0c             	sub    $0xc,%esp
 db0:	6a 00                	push   $0x0
 db2:	b9 10 00 00 00       	mov    $0x10,%ecx
 db7:	8b 7d d4             	mov    -0x2c(%ebp),%edi
 dba:	8b 17                	mov    (%edi),%edx
 dbc:	8b 45 08             	mov    0x8(%ebp),%eax
 dbf:	e8 6e fe ff ff       	call   c32 <printint>
        ap++;
 dc4:	89 f8                	mov    %edi,%eax
 dc6:	83 c0 04             	add    $0x4,%eax
 dc9:	89 45 d4             	mov    %eax,-0x2c(%ebp)
 dcc:	83 c4 10             	add    $0x10,%esp
      state = 0;
 dcf:	bf 00 00 00 00       	mov    $0x0,%edi
 dd4:	e9 28 ff ff ff       	jmp    d01 <printf+0x45>
        s = (char*)*ap;
 dd9:	8b 4d d4             	mov    -0x2c(%ebp),%ecx
 ddc:	8b 01                	mov    (%ecx),%eax
        ap++;
 dde:	83 c1 04             	add    $0x4,%ecx
 de1:	89 4d d4             	mov    %ecx,-0x2c(%ebp)
        if(s == 0)
 de4:	85 c0                	test   %eax,%eax
 de6:	74 13                	je     dfb <printf+0x13f>
        s = (char*)*ap;
 de8:	89 c3                	mov    %eax,%ebx
        while(*s != 0){
 dea:	0f b6 00             	movzbl (%eax),%eax
      state = 0;
 ded:	bf 00 00 00 00       	mov    $0x0,%edi
        while(*s != 0){
 df2:	84 c0                	test   %al,%al
 df4:	75 0f                	jne    e05 <printf+0x149>
 df6:	e9 06 ff ff ff       	jmp    d01 <printf+0x45>
          s = "(null)";
 dfb:	bb bc 10 00 00       	mov    $0x10bc,%ebx
        while(*s != 0){
 e00:	b8 28 00 00 00       	mov    $0x28,%eax
  write(fd, &c, 1);
 e05:	8d 7d e3             	lea    -0x1d(%ebp),%edi
 e08:	89 75 d0             	mov    %esi,-0x30(%ebp)
 e0b:	8b 75 08             	mov    0x8(%ebp),%esi
 e0e:	88 45 e3             	mov    %al,-0x1d(%ebp)
 e11:	83 ec 04             	sub    $0x4,%esp
 e14:	6a 01                	push   $0x1
 e16:	57                   	push   %edi
 e17:	56                   	push   %esi
 e18:	e8 95 fd ff ff       	call   bb2 <write>
          s++;
 e1d:	83 c3 01             	add    $0x1,%ebx
        while(*s != 0){
 e20:	0f b6 03             	movzbl (%ebx),%eax
 e23:	83 c4 10             	add    $0x10,%esp
 e26:	84 c0                	test   %al,%al
 e28:	75 e4                	jne    e0e <printf+0x152>
 e2a:	8b 75 d0             	mov    -0x30(%ebp),%esi
      state = 0;
 e2d:	bf 00 00 00 00       	mov    $0x0,%edi
 e32:	e9 ca fe ff ff       	jmp    d01 <printf+0x45>
        putc(fd, *ap);
 e37:	8b 7d d4             	mov    -0x2c(%ebp),%edi
 e3a:	8b 07                	mov    (%edi),%eax
 e3c:	88 45 e4             	mov    %al,-0x1c(%ebp)
  write(fd, &c, 1);
 e3f:	83 ec 04             	sub    $0x4,%esp
 e42:	6a 01                	push   $0x1
 e44:	8d 45 e4             	lea    -0x1c(%ebp),%eax
 e47:	50                   	push   %eax
 e48:	ff 75 08             	pushl  0x8(%ebp)
 e4b:	e8 62 fd ff ff       	call   bb2 <write>
        ap++;
 e50:	83 c7 04             	add    $0x4,%edi
 e53:	89 7d d4             	mov    %edi,-0x2c(%ebp)
 e56:	83 c4 10             	add    $0x10,%esp
      state = 0;
 e59:	bf 00 00 00 00       	mov    $0x0,%edi
 e5e:	e9 9e fe ff ff       	jmp    d01 <printf+0x45>
 e63:	88 5d e5             	mov    %bl,-0x1b(%ebp)
  write(fd, &c, 1);
 e66:	83 ec 04             	sub    $0x4,%esp
 e69:	6a 01                	push   $0x1
 e6b:	8d 45 e5             	lea    -0x1b(%ebp),%eax
 e6e:	50                   	push   %eax
 e6f:	ff 75 08             	pushl  0x8(%ebp)
 e72:	e8 3b fd ff ff       	call   bb2 <write>
 e77:	83 c4 10             	add    $0x10,%esp
      state = 0;
 e7a:	bf 00 00 00 00       	mov    $0x0,%edi
 e7f:	e9 7d fe ff ff       	jmp    d01 <printf+0x45>
    }
  }
}
 e84:	8d 65 f4             	lea    -0xc(%ebp),%esp
 e87:	5b                   	pop    %ebx
 e88:	5e                   	pop    %esi
 e89:	5f                   	pop    %edi
 e8a:	5d                   	pop    %ebp
 e8b:	c3                   	ret    

00000e8c <free>:
static Header base;
static Header *freep;

void
free(void *ap)
{
 e8c:	55                   	push   %ebp
 e8d:	89 e5                	mov    %esp,%ebp
 e8f:	57                   	push   %edi
 e90:	56                   	push   %esi
 e91:	53                   	push   %ebx
 e92:	8b 5d 08             	mov    0x8(%ebp),%ebx
  Header *bp, *p;

  bp = (Header*)ap - 1;
 e95:	8d 4b f8             	lea    -0x8(%ebx),%ecx
  for(p = freep; !(bp > p && bp < p->s.ptr); p = p->s.ptr)
 e98:	a1 84 16 00 00       	mov    0x1684,%eax
 e9d:	eb 0c                	jmp    eab <free+0x1f>
    if(p >= p->s.ptr && (bp > p || bp < p->s.ptr))
 e9f:	8b 10                	mov    (%eax),%edx
 ea1:	39 c2                	cmp    %eax,%edx
 ea3:	77 04                	ja     ea9 <free+0x1d>
 ea5:	39 ca                	cmp    %ecx,%edx
 ea7:	77 10                	ja     eb9 <free+0x2d>
{
 ea9:	89 d0                	mov    %edx,%eax
  for(p = freep; !(bp > p && bp < p->s.ptr); p = p->s.ptr)
 eab:	39 c8                	cmp    %ecx,%eax
 ead:	73 f0                	jae    e9f <free+0x13>
 eaf:	8b 10                	mov    (%eax),%edx
 eb1:	39 ca                	cmp    %ecx,%edx
 eb3:	77 04                	ja     eb9 <free+0x2d>
    if(p >= p->s.ptr && (bp > p || bp < p->s.ptr))
 eb5:	39 c2                	cmp    %eax,%edx
 eb7:	77 f0                	ja     ea9 <free+0x1d>
      break;
  if(bp + bp->s.size == p->s.ptr){
 eb9:	8b 73 fc             	mov    -0x4(%ebx),%esi
 ebc:	8b 10                	mov    (%eax),%edx
 ebe:	8d 3c f1             	lea    (%ecx,%esi,8),%edi
 ec1:	39 fa                	cmp    %edi,%edx
 ec3:	74 19                	je     ede <free+0x52>
    bp->s.size += p->s.ptr->s.size;
    bp->s.ptr = p->s.ptr->s.ptr;
  } else
    bp->s.ptr = p->s.ptr;
 ec5:	89 53 f8             	mov    %edx,-0x8(%ebx)
  if(p + p->s.size == bp){
 ec8:	8b 50 04             	mov    0x4(%eax),%edx
 ecb:	8d 34 d0             	lea    (%eax,%edx,8),%esi
 ece:	39 f1                	cmp    %esi,%ecx
 ed0:	74 1b                	je     eed <free+0x61>
    p->s.size += bp->s.size;
    p->s.ptr = bp->s.ptr;
  } else
    p->s.ptr = bp;
 ed2:	89 08                	mov    %ecx,(%eax)
  freep = p;
 ed4:	a3 84 16 00 00       	mov    %eax,0x1684
}
 ed9:	5b                   	pop    %ebx
 eda:	5e                   	pop    %esi
 edb:	5f                   	pop    %edi
 edc:	5d                   	pop    %ebp
 edd:	c3                   	ret    
    bp->s.size += p->s.ptr->s.size;
 ede:	03 72 04             	add    0x4(%edx),%esi
 ee1:	89 73 fc             	mov    %esi,-0x4(%ebx)
    bp->s.ptr = p->s.ptr->s.ptr;
 ee4:	8b 10                	mov    (%eax),%edx
 ee6:	8b 12                	mov    (%edx),%edx
 ee8:	89 53 f8             	mov    %edx,-0x8(%ebx)
 eeb:	eb db                	jmp    ec8 <free+0x3c>
    p->s.size += bp->s.size;
 eed:	03 53 fc             	add    -0x4(%ebx),%edx
 ef0:	89 50 04             	mov    %edx,0x4(%eax)
    p->s.ptr = bp->s.ptr;
 ef3:	8b 53 f8             	mov    -0x8(%ebx),%edx
 ef6:	89 10                	mov    %edx,(%eax)
 ef8:	eb da                	jmp    ed4 <free+0x48>

00000efa <malloc>:
  return freep;
}

void*
malloc(uint nbytes)
{
 efa:	55                   	push   %ebp
 efb:	89 e5                	mov    %esp,%ebp
 efd:	57                   	push   %edi
 efe:	56                   	push   %esi
 eff:	53                   	push   %ebx
 f00:	83 ec 0c             	sub    $0xc,%esp
  Header *p, *prevp;
  uint nunits;

  nunits = (nbytes + sizeof(Header) - 1)/sizeof(Header) + 1;
 f03:	8b 45 08             	mov    0x8(%ebp),%eax
 f06:	8d 58 07             	lea    0x7(%eax),%ebx
 f09:	c1 eb 03             	shr    $0x3,%ebx
 f0c:	83 c3 01             	add    $0x1,%ebx
  if((prevp = freep) == 0){
 f0f:	8b 15 84 16 00 00    	mov    0x1684,%edx
 f15:	85 d2                	test   %edx,%edx
 f17:	74 20                	je     f39 <malloc+0x3f>
    base.s.ptr = freep = prevp = &base;
    base.s.size = 0;
  }
  for(p = prevp->s.ptr; ; prevp = p, p = p->s.ptr){
 f19:	8b 02                	mov    (%edx),%eax
    if(p->s.size >= nunits){
 f1b:	8b 48 04             	mov    0x4(%eax),%ecx
 f1e:	39 cb                	cmp    %ecx,%ebx
 f20:	76 3c                	jbe    f5e <malloc+0x64>
 f22:	81 fb 00 10 00 00    	cmp    $0x1000,%ebx
 f28:	be 00 10 00 00       	mov    $0x1000,%esi
 f2d:	0f 43 f3             	cmovae %ebx,%esi
  p = sbrk(nu * sizeof(Header));
 f30:	8d 3c f5 00 00 00 00 	lea    0x0(,%esi,8),%edi
 f37:	eb 70                	jmp    fa9 <malloc+0xaf>
    base.s.ptr = freep = prevp = &base;
 f39:	c7 05 84 16 00 00 88 	movl   $0x1688,0x1684
 f40:	16 00 00 
 f43:	c7 05 88 16 00 00 88 	movl   $0x1688,0x1688
 f4a:	16 00 00 
    base.s.size = 0;
 f4d:	c7 05 8c 16 00 00 00 	movl   $0x0,0x168c
 f54:	00 00 00 
    base.s.ptr = freep = prevp = &base;
 f57:	ba 88 16 00 00       	mov    $0x1688,%edx
 f5c:	eb bb                	jmp    f19 <malloc+0x1f>
      if(p->s.size == nunits)
 f5e:	39 cb                	cmp    %ecx,%ebx
 f60:	74 1c                	je     f7e <malloc+0x84>
        prevp->s.ptr = p->s.ptr;
      else {
        p->s.size -= nunits;
 f62:	29 d9                	sub    %ebx,%ecx
 f64:	89 48 04             	mov    %ecx,0x4(%eax)
        p += p->s.size;
 f67:	8d 04 c8             	lea    (%eax,%ecx,8),%eax
        p->s.size = nunits;
 f6a:	89 58 04             	mov    %ebx,0x4(%eax)
      }
      freep = prevp;
 f6d:	89 15 84 16 00 00    	mov    %edx,0x1684
      return (void*)(p + 1);
 f73:	83 c0 08             	add    $0x8,%eax
    }
    if(p == freep)
      if((p = morecore(nunits)) == 0)
        return 0;
  }
}
 f76:	8d 65 f4             	lea    -0xc(%ebp),%esp
 f79:	5b                   	pop    %ebx
 f7a:	5e                   	pop    %esi
 f7b:	5f                   	pop    %edi
 f7c:	5d                   	pop    %ebp
 f7d:	c3                   	ret    
        prevp->s.ptr = p->s.ptr;
 f7e:	8b 08                	mov    (%eax),%ecx
 f80:	89 0a                	mov    %ecx,(%edx)
 f82:	eb e9                	jmp    f6d <malloc+0x73>
  hp->s.size = nu;
 f84:	89 70 04             	mov    %esi,0x4(%eax)
  free((void*)(hp + 1));
 f87:	83 ec 0c             	sub    $0xc,%esp
 f8a:	83 c0 08             	add    $0x8,%eax
 f8d:	50                   	push   %eax
 f8e:	e8 f9 fe ff ff       	call   e8c <free>
  return freep;
 f93:	8b 15 84 16 00 00    	mov    0x1684,%edx
      if((p = morecore(nunits)) == 0)
 f99:	83 c4 10             	add    $0x10,%esp
 f9c:	85 d2                	test   %edx,%edx
 f9e:	74 2b                	je     fcb <malloc+0xd1>
  for(p = prevp->s.ptr; ; prevp = p, p = p->s.ptr){
 fa0:	8b 02                	mov    (%edx),%eax
    if(p->s.size >= nunits){
 fa2:	8b 48 04             	mov    0x4(%eax),%ecx
 fa5:	39 d9                	cmp    %ebx,%ecx
 fa7:	73 b5                	jae    f5e <malloc+0x64>
 fa9:	89 c2                	mov    %eax,%edx
    if(p == freep)
 fab:	39 05 84 16 00 00    	cmp    %eax,0x1684
 fb1:	75 ed                	jne    fa0 <malloc+0xa6>
  p = sbrk(nu * sizeof(Header));
 fb3:	83 ec 0c             	sub    $0xc,%esp
 fb6:	57                   	push   %edi
 fb7:	e8 5e fc ff ff       	call   c1a <sbrk>
  if(p == (char*)-1)
 fbc:	83 c4 10             	add    $0x10,%esp
 fbf:	83 f8 ff             	cmp    $0xffffffff,%eax
 fc2:	75 c0                	jne    f84 <malloc+0x8a>
        return 0;
 fc4:	b8 00 00 00 00       	mov    $0x0,%eax
 fc9:	eb ab                	jmp    f76 <malloc+0x7c>
 fcb:	b8 00 00 00 00       	mov    $0x0,%eax
 fd0:	eb a4                	jmp    f76 <malloc+0x7c>
